target datalayout = "e-m:e-p270:32:32-p271:32:32-p272:64:64-i64:64-i128:128-f80:128-n8:16:32:64-S128"
target triple = "x86_64-pc-linux-gnu"

%struct.lzma_lz_decoder = type { ptr, ptr, ptr, ptr, ptr }
%struct.lzma_lzma2_coder = type { i32, i32, %struct.lzma_lz_decoder, i64, i64, i8, i8, %struct.lzma_options_lzma }
%struct.lzma_options_lzma = type { i32, ptr, i32, i32, i32, i32, i32, i32, i32, i32, i32, i32, i32, i32, i32, i32, i32, i32, i32, i32, i32, i32, ptr, ptr }

; Function Attrs: nounwind uwtable
define internal i32 @lzma2_decoder_init(ptr noundef %0, ptr noundef %1, i64 noundef %2, ptr noundef %3, ptr noundef %4) #0 {
  %6 = alloca i32, align 4
  %7 = alloca ptr, align 8
  %8 = alloca ptr, align 8
  %9 = alloca i64, align 8
  %10 = alloca ptr, align 8
  %11 = alloca ptr, align 8
  %12 = alloca ptr, align 8
  %13 = alloca i32, align 4
  %14 = alloca %struct.lzma_lz_decoder, align 8
  %15 = alloca ptr, align 8
  store ptr %0, ptr %7, align 8, !tbaa !9
  store ptr %1, ptr %8, align 8, !tbaa !9
  store i64 %2, ptr %9, align 8, !tbaa !12
  store ptr %3, ptr %10, align 8, !tbaa !9
  store ptr %4, ptr %11, align 8, !tbaa !9
  call void @llvm.lifetime.start.p0(i64 8, ptr %12) #6
  %16 = load ptr, ptr %7, align 8, !tbaa !9
  %17 = getelementptr inbounds nuw %struct.lzma_lz_decoder, ptr %16, i32 0, i32 0
  %18 = load ptr, ptr %17, align 8, !tbaa !14
  store ptr %18, ptr %12, align 8, !tbaa !9
  %19 = load ptr, ptr %12, align 8, !tbaa !9
  %20 = icmp eq ptr %19, null
  br i1 %20, label %21, label %37

21:                                               ; preds = %5
  %22 = load ptr, ptr %8, align 8, !tbaa !9
  %23 = call ptr @lzma_alloc(i64 noundef 184, ptr noundef %22)
  store ptr %23, ptr %12, align 8, !tbaa !9
  %24 = load ptr, ptr %12, align 8, !tbaa !9
  %25 = icmp eq ptr %24, null
  br i1 %25, label %26, label %27

26:                                               ; preds = %21
  store i32 5, ptr %6, align 4
  store i32 1, ptr %13, align 4
  br label %63

27:                                               ; preds = %21
  %28 = load ptr, ptr %12, align 8, !tbaa !9
  %29 = load ptr, ptr %7, align 8, !tbaa !9
  %30 = getelementptr inbounds nuw %struct.lzma_lz_decoder, ptr %29, i32 0, i32 0
  store ptr %28, ptr %30, align 8, !tbaa !14
  %31 = load ptr, ptr %7, align 8, !tbaa !9
  %32 = getelementptr inbounds nuw %struct.lzma_lz_decoder, ptr %31, i32 0, i32 1
  store ptr @lzma2_decode, ptr %32, align 8, !tbaa !16
  %33 = load ptr, ptr %7, align 8, !tbaa !9
  %34 = getelementptr inbounds nuw %struct.lzma_lz_decoder, ptr %33, i32 0, i32 4
  store ptr @lzma2_decoder_end, ptr %34, align 8, !tbaa !17
  %35 = load ptr, ptr %12, align 8, !tbaa !9
  %36 = getelementptr inbounds nuw %struct.lzma_lzma2_coder, ptr %35, i32 0, i32 2
  call void @llvm.memset.p0.i64(ptr align 8 %14, i8 0, i64 40, i1 false)
  call void @llvm.memcpy.p0.p0.i64(ptr align 8 %36, ptr align 8 %14, i64 40, i1 false), !tbaa.struct !18
  br label %37

37:                                               ; preds = %27, %5
  call void @llvm.lifetime.start.p0(i64 8, ptr %15) #6
  %38 = load ptr, ptr %10, align 8, !tbaa !9
  store ptr %38, ptr %15, align 8, !tbaa !9
  %39 = load ptr, ptr %12, align 8, !tbaa !9
  %40 = getelementptr inbounds nuw %struct.lzma_lzma2_coder, ptr %39, i32 0, i32 0
  store i32 0, ptr %40, align 8, !tbaa !19
  %41 = load ptr, ptr %12, align 8, !tbaa !9
  %42 = getelementptr inbounds nuw %struct.lzma_lzma2_coder, ptr %41, i32 0, i32 5
  store i8 1, ptr %42, align 8, !tbaa !25
  %43 = load ptr, ptr %15, align 8, !tbaa !9
  %44 = getelementptr inbounds nuw %struct.lzma_options_lzma, ptr %43, i32 0, i32 1
  %45 = load ptr, ptr %44, align 8, !tbaa !26
  %46 = icmp eq ptr %45, null
  br i1 %46, label %52, label %47

47:                                               ; preds = %37
  %48 = load ptr, ptr %15, align 8, !tbaa !9
  %49 = getelementptr inbounds nuw %struct.lzma_options_lzma, ptr %48, i32 0, i32 2
  %50 = load i32, ptr %49, align 8, !tbaa !27
  %51 = icmp eq i32 %50, 0
  br label %52

52:                                               ; preds = %47, %37
  %53 = phi i1 [ true, %37 ], [ %51, %47 ]
  %54 = load ptr, ptr %12, align 8, !tbaa !9
  %55 = getelementptr inbounds nuw %struct.lzma_lzma2_coder, ptr %54, i32 0, i32 6
  %56 = zext i1 %53 to i8
  store i8 %56, ptr %55, align 1, !tbaa !28
  %57 = load ptr, ptr %12, align 8, !tbaa !9
  %58 = getelementptr inbounds nuw %struct.lzma_lzma2_coder, ptr %57, i32 0, i32 2
  %59 = load ptr, ptr %8, align 8, !tbaa !9
  %60 = load ptr, ptr %15, align 8, !tbaa !9
  %61 = load ptr, ptr %11, align 8, !tbaa !9
  %62 = call i32 @lzma_lzma_decoder_create(ptr noundef %58, ptr noundef %59, ptr noundef %60, ptr noundef %61)
  store i32 %62, ptr %6, align 4
  store i32 1, ptr %13, align 4
  call void @llvm.lifetime.end.p0(i64 8, ptr %15) #6
  br label %63

63:                                               ; preds = %52, %26
  call void @llvm.lifetime.end.p0(i64 8, ptr %12) #6
  %64 = load i32, ptr %6, align 4
  ret i32 %64
}