; Function Attrs: nounwind uwtable
define internal i32 @lzma2_decoder_init(ptr noundef captures(none) %0, ptr noundef %1, i64 %2, ptr noundef %3, ptr noundef %4) #0 {
  %6 = load ptr, ptr %0, align 8, !tbaa !4
  %7 = icmp eq ptr %6, null
  br i1 %7, label %8, label %15

8:                                                ; preds = %5
  %9 = tail call ptr @lzma_alloc(i64 noundef 184, ptr noundef %1) #4
  %10 = icmp eq ptr %9, null
  br i1 %10, label %30, label %11

11:                                               ; preds = %8
  store ptr %9, ptr %0, align 8, !tbaa !4
  %12 = getelementptr inbounds nuw i8, ptr %0, i64 8
  store ptr @lzma2_decode, ptr %12, align 8, !tbaa !9
  %13 = getelementptr inbounds nuw i8, ptr %0, i64 32
  store ptr @lzma2_decoder_end, ptr %13, align 8, !tbaa !10
  %14 = getelementptr inbounds nuw i8, ptr %9, i64 8
  tail call void @llvm.memset.p0.i64(ptr noundef nonnull align 8 dereferenceable(40) %14, i8 0, i64 40, i1 false)
  br label %15

15:                                               ; preds = %11, %5
  %.019 = phi ptr [ %9, %11 ], [ %6, %5 ]
  store i32 0, ptr %.019, align 8, !tbaa !11
  %16 = getelementptr inbounds nuw i8, ptr %.019, i64 64
  store i8 1, ptr %16, align 8, !tbaa !18
  %17 = getelementptr inbounds nuw i8, ptr %3, i64 8
  %18 = load ptr, ptr %17, align 8, !tbaa !19
  %19 = icmp eq ptr %18, null
  br i1 %19, label %25, label %20

20:                                               ; preds = %15
  %21 = getelementptr inbounds nuw i8, ptr %3, i64 16
  %22 = load i32, ptr %21, align 8, !tbaa !20
  %23 = icmp eq i32 %22, 0
  %24 = zext i1 %23 to i8
  br label %25

25:                                               ; preds = %20, %15
  %26 = phi i8 [ 1, %15 ], [ %24, %20 ]
  %27 = getelementptr inbounds nuw i8, ptr %.019, i64 65
  store i8 %26, ptr %27, align 1, !tbaa !21
  %28 = getelementptr inbounds nuw i8, ptr %.019, i64 8
  %29 = tail call i32 @lzma_lzma_decoder_create(ptr noundef nonnull %28, ptr noundef %1, ptr noundef nonnull %3, ptr noundef %4) #4
  br label %30

30:                                               ; preds = %8, %25
  %.0 = phi i32 [ %29, %25 ], [ 5, %8 ]
  ret i32 %.0
}